; Function Attrs: nounwind sspstrong uwtable
define internal i64 @ossl_pkey_raw_public_key(i64 noundef %0) #0 {
  %2 = alloca i64, align 8
  call void @llvm.lifetime.start.p0(i64 8, ptr nonnull %2) #8
  %3 = tail call ptr @rb_check_typeddata(i64 noundef %0, ptr noundef nonnull @ossl_evp_pkey_type) #8
  %.not = icmp eq ptr %3, null
  br i1 %.not, label %4, label %6

4:                                                ; preds = %1
  %5 = load i64, ptr @rb_eRuntimeError, align 8, !tbaa !10
  tail call void (i64, ptr, ...) @rb_raise(i64 noundef %5, ptr noundef nonnull @.str.4) #9
  unreachable

6:                                                ; preds = %1
  %7 = call i32 @EVP_PKEY_get_raw_public_key(ptr noundef nonnull %3, ptr noundef null, ptr noundef nonnull %2) #8
  %.not6 = icmp eq i32 %7, 1
  br i1 %.not6, label %10, label %8

8:                                                ; preds = %6
  %9 = load i64, ptr @ePKeyError, align 8, !tbaa !10
  call void (i64, ptr, ...) @ossl_raise(i64 noundef %9, ptr noundef nonnull @.str.62) #9
  unreachable

10:                                               ; preds = %6
  %11 = load i64, ptr %2, align 8, !tbaa !10
  %12 = call i64 @rb_str_new(ptr noundef null, i64 noundef %11) #8, !callees !43
  %13 = inttoptr i64 %12 to ptr
  %14 = load i64, ptr %13, align 8, !tbaa !28, !noalias !47
  %15 = and i64 %14, 8192
  %.not.i.i = icmp eq i64 %15, 0
  %16 = getelementptr inbounds nuw i8, ptr %13, i64 24
  br i1 %.not.i.i, label %RSTRING_PTR.exit, label %17

17:                                               ; preds = %10
  %.sroa.2.0.copyload.i = load ptr, ptr %16, align 8
  br label %RSTRING_PTR.exit

RSTRING_PTR.exit:                                 ; preds = %10, %17
  %.sroa.2.0.i = phi ptr [ %.sroa.2.0.copyload.i, %17 ], [ %16, %10 ]
  %18 = call i32 @EVP_PKEY_get_raw_public_key(ptr noundef nonnull %3, ptr noundef %.sroa.2.0.i, ptr noundef nonnull %2) #8
  %.not7 = icmp eq i32 %18, 1
  br i1 %.not7, label %21, label %19

19:                                               ; preds = %RSTRING_PTR.exit
  %20 = load i64, ptr @ePKeyError, align 8, !tbaa !10
  call void (i64, ptr, ...) @ossl_raise(i64 noundef %20, ptr noundef nonnull @.str.62) #9
  unreachable

21:                                               ; preds = %RSTRING_PTR.exit
  %22 = load i64, ptr %2, align 8, !tbaa !10
  call void @rb_str_set_len(i64 noundef %12, i64 noundef %22) #8
  call void @llvm.lifetime.end.p0(i64 8, ptr nonnull %2) #8
  ret i64 %12
}